S' neurons_per_layer, improvement_threshold, number_of_layers, finetune_lr, batch_size, pretrain_lr, patience, submit_threshold, patience_increase, pretraining_epochs, training_epochs, test_score, test_std_dev, walltime'
p1
.